; Function Attrs: nofree norecurse nosync nounwind memory(readwrite, inaccessiblemem: none) uwtable
define internal noundef i32 @corr_slice16(ptr noundef readonly captures(none) %0, ptr noundef readonly captures(none) %1, i32 noundef %2, i32 noundef %3) #6 {
  %5 = getelementptr inbounds nuw i8, ptr %0, i64 72
  %6 = load ptr, ptr %5, align 8, !tbaa !4
  %7 = load ptr, ptr %1, align 8, !tbaa !68
  %8 = getelementptr inbounds nuw i8, ptr %1, i64 8
  %9 = load ptr, ptr %8, align 8, !tbaa !71
  %10 = getelementptr inbounds nuw i8, ptr %6, i64 248
  %11 = load i32, ptr %10, align 8, !tbaa !32
  %12 = icmp sgt i32 %11, 0
  br i1 %12, label %.lr.ph, label %._crit_edge

.lr.ph:                                           ; preds = %4
  %13 = getelementptr inbounds nuw i8, ptr %7, i64 64
  %14 = getelementptr inbounds nuw i8, ptr %9, i64 64
  %15 = getelementptr inbounds nuw i8, ptr %6, i64 268
  %16 = getelementptr inbounds nuw i8, ptr %6, i64 252
  %17 = add nsw i32 %2, 1
  %18 = getelementptr inbounds nuw i8, ptr %6, i64 180
  %19 = getelementptr inbounds nuw i8, ptr %6, i64 200
  %20 = getelementptr inbounds nuw i8, ptr %6, i64 240
  %21 = load ptr, ptr %20, align 8, !tbaa !63
  %22 = mul nsw i32 %11, %2
  %23 = sext i32 %22 to i64
  %wide.trip.count117 = zext nneg i32 %11 to i64
  br label %24

._crit_edge:                                      ; preds = %._crit_edge102, %4
  ret i32 0

24:                                               ; preds = %.lr.ph, %._crit_edge102
  %indvars.iv114 = phi i64 [ 0, %.lr.ph ], [ %indvars.iv.next115, %._crit_edge102 ]
  %25 = getelementptr inbounds nuw [8 x i32], ptr %13, i64 0, i64 %indvars.iv114
  %26 = load i32, ptr %25, align 4, !tbaa !60
  %27 = sext i32 %26 to i64
  %28 = lshr i64 %27, 1
  %29 = getelementptr inbounds nuw [8 x i32], ptr %14, i64 0, i64 %indvars.iv114
  %30 = load i32, ptr %29, align 4, !tbaa !60
  %31 = sext i32 %30 to i64
  %32 = lshr i64 %31, 1
  %33 = getelementptr inbounds nuw [4 x i32], ptr %15, i64 0, i64 %indvars.iv114
  %34 = load i32, ptr %33, align 4, !tbaa !60
  %35 = getelementptr inbounds nuw [4 x i32], ptr %16, i64 0, i64 %indvars.iv114
  %36 = load i32, ptr %35, align 4, !tbaa !60
  %37 = mul nsw i32 %34, %2
  %38 = sdiv i32 %37, %3
  %39 = mul nsw i32 %34, %17
  %40 = sdiv i32 %39, %3
  %41 = getelementptr inbounds nuw [4 x i32], ptr %18, i64 0, i64 %indvars.iv114
  %42 = load i32, ptr %41, align 4, !tbaa !60
  %43 = sitofp i32 %42 to float
  %44 = fdiv nsz float 1.000000e+00, %43
  %45 = icmp slt i32 %38, %40
  br i1 %45, label %.preheader.lr.ph, label %._crit_edge102

.preheader.lr.ph:                                 ; preds = %24
  %46 = getelementptr inbounds nuw [4 x [2 x float]], ptr %19, i64 0, i64 %indvars.iv114
  %47 = getelementptr inbounds nuw i8, ptr %46, i64 4
  %48 = load float, ptr %47, align 4, !tbaa !82
  %49 = load float, ptr %46, align 8, !tbaa !82
  %50 = icmp sgt i32 %36, 0
  %51 = fneg nsz float %49
  %52 = fneg nsz float %48
  br i1 %50, label %.preheader.us.preheader, label %._crit_edge102

.preheader.us.preheader:                          ; preds = %.preheader.lr.ph
  %53 = getelementptr inbounds nuw [8 x ptr], ptr %7, i64 0, i64 %indvars.iv114
  %54 = load ptr, ptr %53, align 8, !tbaa !72
  %55 = sext i32 %38 to i64
  %56 = mul nsw i64 %28, %55
  %57 = getelementptr inbounds i16, ptr %54, i64 %56
  %58 = getelementptr inbounds nuw [8 x ptr], ptr %9, i64 0, i64 %indvars.iv114
  %59 = load ptr, ptr %58, align 8, !tbaa !72
  %60 = mul nsw i64 %32, %55
  %61 = getelementptr inbounds i16, ptr %59, i64 %60
  %wide.trip.count = zext nneg i32 %36 to i64
  br label %.preheader.us

.preheader.us:                                    ; preds = %.preheader.us.preheader, %._crit_edge.us
  %.082101.us = phi i32 [ %76, %._crit_edge.us ], [ %38, %.preheader.us.preheader ]
  %.083100.us = phi float [ %73, %._crit_edge.us ], [ 0.000000e+00, %.preheader.us.preheader ]
  %.08499.us = phi float [ %72, %._crit_edge.us ], [ 0.000000e+00, %.preheader.us.preheader ]
  %.08698.us = phi float [ %71, %._crit_edge.us ], [ 0.000000e+00, %.preheader.us.preheader ]
  %.08897.us = phi ptr [ %74, %._crit_edge.us ], [ %57, %.preheader.us.preheader ]
  %.08996.us = phi ptr [ %75, %._crit_edge.us ], [ %61, %.preheader.us.preheader ]
  br label %62

62:                                               ; preds = %.preheader.us, %62
  %indvars.iv = phi i64 [ 0, %.preheader.us ], [ %indvars.iv.next, %62 ]
  %.192.us = phi float [ %.083100.us, %.preheader.us ], [ %73, %62 ]
  %.18591.us = phi float [ %.08499.us, %.preheader.us ], [ %72, %62 ]
  %.18790.us = phi float [ %.08698.us, %.preheader.us ], [ %71, %62 ]
  %63 = getelementptr inbounds nuw i16, ptr %.08897.us, i64 %indvars.iv
  %64 = load i16, ptr %63, align 2, !tbaa !73
  %65 = uitofp i16 %64 to float
  %66 = tail call nsz float @llvm.fmuladd.f32(float %44, float %65, float %51)
  %67 = getelementptr inbounds nuw i16, ptr %.08996.us, i64 %indvars.iv
  %68 = load i16, ptr %67, align 2, !tbaa !73
  %69 = uitofp i16 %68 to float
  %70 = tail call nsz float @llvm.fmuladd.f32(float %44, float %69, float %52)
  %71 = tail call nsz float @llvm.fmuladd.f32(float %66, float %70, float %.18790.us)
  %72 = tail call nsz float @llvm.fmuladd.f32(float %66, float %66, float %.18591.us)
  %73 = tail call nsz float @llvm.fmuladd.f32(float %70, float %70, float %.192.us)
  %indvars.iv.next = add nuw nsw i64 %indvars.iv, 1
  %exitcond.not = icmp eq i64 %indvars.iv.next, %wide.trip.count
  br i1 %exitcond.not, label %._crit_edge.us, label %62, !llvm.loop !84

._crit_edge.us:                                   ; preds = %62
  %74 = getelementptr inbounds nuw i16, ptr %.08897.us, i64 %28
  %75 = getelementptr inbounds nuw i16, ptr %.08996.us, i64 %32
  %76 = add nsw i32 %.082101.us, 1
  %exitcond113.not = icmp eq i32 %76, %40
  br i1 %exitcond113.not, label %._crit_edge102, label %.preheader.us, !llvm.loop !85

._crit_edge102:                                   ; preds = %._crit_edge.us, %.preheader.lr.ph, %24
  %.086.lcssa = phi float [ 0.000000e+00, %24 ], [ 0.000000e+00, %.preheader.lr.ph ], [ %71, %._crit_edge.us ]
  %.084.lcssa = phi float [ 0.000000e+00, %24 ], [ 0.000000e+00, %.preheader.lr.ph ], [ %72, %._crit_edge.us ]
  %.083.lcssa = phi float [ 0.000000e+00, %24 ], [ 0.000000e+00, %.preheader.lr.ph ], [ %73, %._crit_edge.us ]
  %77 = add nsw i64 %indvars.iv114, %23
  %78 = getelementptr inbounds %struct.QSums, ptr %21, i64 %77
  store float %.086.lcssa, ptr %78, align 4, !tbaa !82
  %79 = getelementptr inbounds %struct.QSums, ptr %21, i64 %77, i32 0, i64 1
  store float %.084.lcssa, ptr %79, align 4, !tbaa !82
  %80 = getelementptr inbounds %struct.QSums, ptr %21, i64 %77, i32 0, i64 2
  store float %.083.lcssa, ptr %80, align 4, !tbaa !82
  %indvars.iv.next115 = add nuw nsw i64 %indvars.iv114, 1
  %exitcond118.not = icmp eq i64 %indvars.iv.next115, %wide.trip.count117
  br i1 %exitcond118.not, label %._crit_edge, label %24, !llvm.loop !86
}